target datalayout = "e-m:e-p270:32:32-p271:32:32-p272:64:64-i64:64-i128:128-f80:128-n8:16:32:64-S128"
target triple = "x86_64-pc-linux-gnu"

%struct._zval_struct = type { %union._zend_value, %union.anon.3, %union.anon.6 }
%union._zend_value = type { i64 }
%union.anon.3 = type { i32 }
%union.anon.6 = type { i32 }
%struct._php_stream_context = type { ptr, %struct._zval_struct, ptr }

; Function Attrs: nounwind uwtable
define ptr @php_stream_context_get_option(ptr noundef %0, ptr noundef %1, ptr noundef %2) #0 {
  %4 = alloca ptr, align 8
  %5 = alloca ptr, align 8
  %6 = alloca ptr, align 8
  %7 = alloca ptr, align 8
  %8 = alloca ptr, align 8
  store ptr %0, ptr %5, align 8
  store ptr %1, ptr %6, align 8
  store ptr %2, ptr %7, align 8
  %9 = load ptr, ptr %5, align 8
  %10 = getelementptr inbounds %struct._php_stream_context, ptr %9, i32 0, i32 1
  %11 = getelementptr inbounds %struct._zval_struct, ptr %10, i32 0, i32 0
  %12 = load ptr, ptr %11, align 8
  %13 = load ptr, ptr %6, align 8
  %14 = load ptr, ptr %6, align 8
  %15 = call i64 @strlen(ptr noundef %14) #13
  %16 = call ptr @zend_hash_str_find(ptr noundef %12, ptr noundef %13, i64 noundef %15)
  store ptr %16, ptr %8, align 8
  %17 = icmp eq ptr null, %16
  br i1 %17, label %18, label %19

18:                                               ; preds = %3
  store ptr null, ptr %4, align 8
  br label %27

19:                                               ; preds = %3
  %20 = load ptr, ptr %8, align 8
  %21 = getelementptr inbounds %struct._zval_struct, ptr %20, i32 0, i32 0
  %22 = load ptr, ptr %21, align 8
  %23 = load ptr, ptr %7, align 8
  %24 = load ptr, ptr %7, align 8
  %25 = call i64 @strlen(ptr noundef %24) #13
  %26 = call ptr @zend_hash_str_find(ptr noundef %22, ptr noundef %23, i64 noundef %25)
  store ptr %26, ptr %4, align 8
  br label %27

27:                                               ; preds = %19, %18
  %28 = load ptr, ptr %4, align 8
  ret ptr %28
}