; Function Attrs: nounwind uwtable
define ptr @php_stream_context_get_option(ptr nocapture noundef readonly %0, ptr noundef %1, ptr noundef %2) local_unnamed_addr #2 {
  %4 = getelementptr inbounds i8, ptr %0, i64 8
  %5 = load ptr, ptr %4, align 8
  %6 = tail call i64 @strlen(ptr noundef nonnull dereferenceable(1) %1) #28
  %7 = tail call ptr @zend_hash_str_find(ptr noundef %5, ptr noundef %1, i64 noundef %6) #27
  %8 = icmp eq ptr %7, null
  br i1 %8, label %13, label %9

9:                                                ; preds = %3
  %10 = load ptr, ptr %7, align 8
  %11 = tail call i64 @strlen(ptr noundef nonnull dereferenceable(1) %2) #28
  %12 = tail call ptr @zend_hash_str_find(ptr noundef %10, ptr noundef %2, i64 noundef %11) #27
  br label %13

13:                                               ; preds = %3, %9
  %.0 = phi ptr [ %12, %9 ], [ null, %3 ]
  ret ptr %.0
}